target datalayout = "e-m:e-p270:32:32-p271:32:32-p272:64:64-i64:64-i128:128-f80:128-n8:16:32:64-S128"
target triple = "x86_64-pc-linux-gnu"

%struct.ssl_connection_st = type { %struct.ssl_st, ptr, i32, ptr, ptr, ptr, i32, ptr, i32, i32, i32, i32, %struct.OSSL_TIME, %struct.OSSL_TIME, %struct.ossl_statem_st, i32, ptr, ptr, i64, i64, i64, %struct.ossl_quic_tls_callbacks_st, ptr, ptr, %struct.anon, ptr, ptr, ptr, i32, ptr, %struct.ssl_dane_st, ptr, ptr, ptr, ptr, i32, [64 x i8], [64 x i8], [64 x i8], [64 x i8], [64 x i8], [64 x i8], [64 x i8], [64 x i8], [64 x i8], [64 x i8], [64 x i8], [64 x i8], ptr, [64 x i8], i64, i32, i64, [32 x i8], ptr, ptr, ptr, i64, ptr, [32 x i8], i64, i32, ptr, ptr, i32, i32, ptr, ptr, ptr, ptr, ptr, i64, ptr, ptr, i64, i32, i32, i32, i64, i32, i32, i64, i64, i64, %struct.anon.1, ptr, i32, ptr, ptr, ptr, i32, ptr, ptr, ptr, i32, i32, i32, i32, ptr, i64, i32, ptr, %struct.srp_ctx_st, ptr, %struct.record_layer_st, ptr, ptr, ptr, ptr, i64, i32, i32, i32, i64, i64, i64, ptr, ptr, ptr, ptr, ptr, i64, ptr, i64, ptr, i64 }
%struct.ssl_st = type { i32, ptr, ptr, ptr, %struct.CRYPTO_REF_COUNT, ptr, %struct.crypto_ex_data_st }
%struct.CRYPTO_REF_COUNT = type { i32 }
%struct.crypto_ex_data_st = type { ptr, ptr }
%struct.OSSL_TIME = type { i64 }
%struct.ossl_statem_st = type { i32, i32, i32, i32, i32, i32, i32, i32, i32, i32, i32, i32, i32, ptr, ptr, ptr, i8 }
%struct.ossl_quic_tls_callbacks_st = type { ptr, ptr, ptr, ptr, ptr, ptr }
%struct.anon = type { i64, [32 x i8], [32 x i8], ptr, ptr, i32, i32, i32, i32, [2 x i8], i32, i32, i32, i32, %struct.anon.0, [64 x i8], i64, [64 x i8], i64, i32, i32, ptr, i64, ptr, i64, i32, i8, i8, i16, ptr, i16 }
%struct.anon.0 = type { [128 x i8], i64, [128 x i8], i64, i64, i32, ptr, ptr, [4 x ptr], [4 x i16], i64, i32, ptr, i64, ptr, i64, ptr, ptr, ptr, i32, i64, ptr, i32, ptr, i64, ptr, i64, ptr, i64, ptr, ptr, ptr, ptr, i64, i64, ptr, ptr, i32, i32, i32, i32 }
%struct.ssl_dane_st = type { ptr, ptr, ptr, ptr, ptr, i32, i32, i32, i64 }
%struct.anon.1 = type { [29 x i8], ptr, ptr, ptr, i32, ptr, i16, i32, %struct.anon.2, i32, i32, i64, ptr, i64, ptr, i64, ptr, i64, ptr, i64, ptr, i64, ptr, ptr, ptr, ptr, ptr, ptr, ptr, i64, ptr, i64, i32, i32, i32, i32, ptr, i64, i32, i8, i32, [4 x i32], i32, i8, i8, i8, i8 }
%struct.anon.2 = type { ptr, ptr, ptr, i64 }
%struct.srp_ctx_st = type { ptr, ptr, ptr, ptr, ptr, ptr, ptr, ptr, ptr, ptr, ptr, ptr, ptr, ptr, i32, i64 }
%struct.record_layer_st = type { ptr, ptr, ptr, ptr, ptr, ptr, ptr, ptr, i64, i32, i64, [4 x i8], i64, i64, i8, ptr, i32, ptr, ptr, ptr, i64, i64, i64, i64, [32 x %struct.tls_record_st] }
%struct.tls_record_st = type { ptr, i32, i8, ptr, ptr, i64, i64, i16, [8 x i8] }
%struct.ssl_session_st = type { i32, i64, [64 x i8], [512 x i8], i64, [32 x i8], i64, [32 x i8], ptr, ptr, i32, ptr, ptr, ptr, i64, %struct.OSSL_TIME, %struct.OSSL_TIME, %struct.OSSL_TIME, i32, ptr, i64, i32, %struct.crypto_ex_data_st, %struct.anon.3, ptr, ptr, i64, i32, ptr, ptr, ptr, %struct.CRYPTO_REF_COUNT }
%struct.anon.3 = type { ptr, ptr, i64, i64, i32, i32, ptr, i64, i8 }
%struct.ssl_cipher_st = type { i32, ptr, ptr, i32, i32, i32, i32, i32, i32, i32, i32, i32, i32, i32, i32, i32 }
%struct.SSL_CERT_LOOKUP = type { i32, i32 }

@.str = private unnamed_addr constant [36 x i8] c"../openssl/ssl/statem/statem_clnt.c\00", align 1
@__func__.ssl3_check_cert_and_algorithm = private unnamed_addr constant [30 x i8] c"ssl3_check_cert_and_algorithm\00", align 1

; Function Attrs: nounwind uwtable
define i32 @ssl3_check_cert_and_algorithm(ptr noundef %0) #0 {
  %2 = alloca i32, align 4
  %3 = alloca ptr, align 8
  %4 = alloca ptr, align 8
  %5 = alloca i64, align 8
  %6 = alloca i64, align 8
  %7 = alloca i64, align 8
  %8 = alloca ptr, align 8
  %9 = alloca i32, align 4
  store ptr %0, ptr %3, align 8, !tbaa !3
  call void @llvm.lifetime.start.p0(i64 8, ptr %4) #8
  call void @llvm.lifetime.start.p0(i64 8, ptr %5) #8
  call void @llvm.lifetime.start.p0(i64 8, ptr %6) #8
  call void @llvm.lifetime.start.p0(i64 8, ptr %7) #8
  call void @llvm.lifetime.start.p0(i64 8, ptr %8) #8
  %10 = load ptr, ptr %3, align 8, !tbaa !3
  %11 = getelementptr inbounds nuw %struct.ssl_connection_st, ptr %10, i32 0, i32 24
  %12 = getelementptr inbounds nuw %struct.anon, ptr %11, i32 0, i32 14
  %13 = getelementptr inbounds nuw %struct.anon.0, ptr %12, i32 0, i32 6
  %14 = load ptr, ptr %13, align 8, !tbaa !88
  %15 = getelementptr inbounds nuw %struct.ssl_cipher_st, ptr %14, i32 0, i32 4
  %16 = load i32, ptr %15, align 4, !tbaa !91
  %17 = zext i32 %16 to i64
  store i64 %17, ptr %6, align 8, !tbaa !98
  %18 = load ptr, ptr %3, align 8, !tbaa !3
  %19 = getelementptr inbounds nuw %struct.ssl_connection_st, ptr %18, i32 0, i32 24
  %20 = getelementptr inbounds nuw %struct.anon, ptr %19, i32 0, i32 14
  %21 = getelementptr inbounds nuw %struct.anon.0, ptr %20, i32 0, i32 6
  %22 = load ptr, ptr %21, align 8, !tbaa !88
  %23 = getelementptr inbounds nuw %struct.ssl_cipher_st, ptr %22, i32 0, i32 5
  %24 = load i32, ptr %23, align 8, !tbaa !89
  %25 = zext i32 %24 to i64
  store i64 %25, ptr %7, align 8, !tbaa !98
  %26 = load i64, ptr %7, align 8, !tbaa !98
  %27 = and i64 %26, 171
  %28 = icmp ne i64 %27, 0
  br i1 %28, label %30, label %29

29:                                               ; preds = %1
  store i32 1, ptr %2, align 4
  store i32 1, ptr %9, align 4
  br label %99

30:                                               ; preds = %1
  %31 = load ptr, ptr %3, align 8, !tbaa !3
  %32 = call ptr @tls_get_peer_pkey(ptr noundef %31)
  store ptr %32, ptr %8, align 8, !tbaa !195
  %33 = load ptr, ptr %8, align 8, !tbaa !195
  %34 = load ptr, ptr %3, align 8, !tbaa !3
  %35 = getelementptr inbounds nuw %struct.ssl_connection_st, ptr %34, i32 0, i32 0
  %36 = getelementptr inbounds nuw %struct.ssl_st, ptr %35, i32 0, i32 1
  %37 = load ptr, ptr %36, align 8, !tbaa !130
  %38 = call ptr @ssl_cert_lookup_by_pkey(ptr noundef %33, ptr noundef %5, ptr noundef %37)
  store ptr %38, ptr %4, align 8, !tbaa !125
  %39 = load ptr, ptr %4, align 8, !tbaa !125
  %40 = icmp eq ptr %39, null
  br i1 %40, label %49, label %41

41:                                               ; preds = %30
  %42 = load i64, ptr %7, align 8, !tbaa !98
  %43 = load ptr, ptr %4, align 8, !tbaa !125
  %44 = getelementptr inbounds nuw %struct.SSL_CERT_LOOKUP, ptr %43, i32 0, i32 1
  %45 = load i32, ptr %44, align 4, !tbaa !216
  %46 = zext i32 %45 to i64
  %47 = and i64 %42, %46
  %48 = icmp eq i64 %47, 0
  br i1 %48, label %49, label %51

49:                                               ; preds = %41, %30
  call void @ERR_new()
  call void @ERR_set_debug(ptr noundef @.str, i32 noundef 3951, ptr noundef @__func__.ssl3_check_cert_and_algorithm)
  %50 = load ptr, ptr %3, align 8, !tbaa !3
  call void (ptr, i32, i32, ptr, ...) @ossl_statem_fatal(ptr noundef %50, i32 noundef 40, i32 noundef 221, ptr noundef null)
  store i32 0, ptr %2, align 4
  store i32 1, ptr %9, align 4
  br label %99

51:                                               ; preds = %41
  %52 = load i64, ptr %6, align 8, !tbaa !98
  %53 = and i64 %52, 65
  %54 = icmp ne i64 %53, 0
  br i1 %54, label %55, label %60

55:                                               ; preds = %51
  %56 = load i64, ptr %5, align 8, !tbaa !98
  %57 = icmp ne i64 %56, 0
  br i1 %57, label %58, label %60

58:                                               ; preds = %55
  call void @ERR_new()
  call void @ERR_set_debug(ptr noundef @.str, i32 noundef 3957, ptr noundef @__func__.ssl3_check_cert_and_algorithm)
  %59 = load ptr, ptr %3, align 8, !tbaa !3
  call void (ptr, i32, i32, ptr, ...) @ossl_statem_fatal(ptr noundef %59, i32 noundef 40, i32 noundef 169, ptr noundef null)
  store i32 0, ptr %2, align 4
  store i32 1, ptr %9, align 4
  br label %99

60:                                               ; preds = %55, %51
  %61 = load i64, ptr %6, align 8, !tbaa !98
  %62 = and i64 %61, 2
  %63 = icmp ne i64 %62, 0
  br i1 %63, label %64, label %72

64:                                               ; preds = %60
  %65 = load ptr, ptr %3, align 8, !tbaa !3
  %66 = getelementptr inbounds nuw %struct.ssl_connection_st, ptr %65, i32 0, i32 24
  %67 = getelementptr inbounds nuw %struct.anon, ptr %66, i32 0, i32 29
  %68 = load ptr, ptr %67, align 8, !tbaa !200
  %69 = icmp eq ptr %68, null
  br i1 %69, label %70, label %72

70:                                               ; preds = %64
  call void @ERR_new()
  call void @ERR_set_debug(ptr noundef @.str, i32 noundef 3962, ptr noundef @__func__.ssl3_check_cert_and_algorithm)
  %71 = load ptr, ptr %3, align 8, !tbaa !3
  call void (ptr, i32, i32, ptr, ...) @ossl_statem_fatal(ptr noundef %71, i32 noundef 80, i32 noundef 786691, ptr noundef null)
  store i32 0, ptr %2, align 4
  store i32 1, ptr %9, align 4
  br label %99

72:                                               ; preds = %64, %60
  %73 = load ptr, ptr %3, align 8, !tbaa !3
  %74 = getelementptr inbounds nuw %struct.ssl_connection_st, ptr %73, i32 0, i32 54
  %75 = load ptr, ptr %74, align 8, !tbaa !84
  %76 = getelementptr inbounds nuw %struct.ssl_session_st, ptr %75, i32 0, i32 11
  %77 = load ptr, ptr %76, align 8, !tbaa !220
  %78 = icmp ne ptr %77, null
  br i1 %78, label %79, label %80

79:                                               ; preds = %72
  store i32 1, ptr %2, align 4
  store i32 1, ptr %9, align 4
  br label %99

80:                                               ; preds = %72
  %81 = load ptr, ptr %4, align 8, !tbaa !125
  %82 = getelementptr inbounds nuw %struct.SSL_CERT_LOOKUP, ptr %81, i32 0, i32 1
  %83 = load i32, ptr %82, align 4, !tbaa !216
  %84 = and i32 %83, 8
  %85 = icmp ne i32 %84, 0
  br i1 %85, label %86, label %98

86:                                               ; preds = %80
  %87 = load ptr, ptr %3, align 8, !tbaa !3
  %88 = getelementptr inbounds nuw %struct.ssl_connection_st, ptr %87, i32 0, i32 54
  %89 = load ptr, ptr %88, align 8, !tbaa !84
  %90 = getelementptr inbounds nuw %struct.ssl_session_st, ptr %89, i32 0, i32 12
  %91 = load ptr, ptr %90, align 8, !tbaa !218
  %92 = load ptr, ptr %3, align 8, !tbaa !3
  %93 = call i32 @ssl_check_srvr_ecc_cert_and_alg(ptr noundef %91, ptr noundef %92)
  %94 = icmp ne i32 %93, 0
  br i1 %94, label %95, label %96

95:                                               ; preds = %86
  store i32 1, ptr %2, align 4
  store i32 1, ptr %9, align 4
  br label %99

96:                                               ; preds = %86
  call void @ERR_new()
  call void @ERR_set_debug(ptr noundef @.str, i32 noundef 3973, ptr noundef @__func__.ssl3_check_cert_and_algorithm)
  %97 = load ptr, ptr %3, align 8, !tbaa !3
  call void (ptr, i32, i32, ptr, ...) @ossl_statem_fatal(ptr noundef %97, i32 noundef 40, i32 noundef 304, ptr noundef null)
  store i32 0, ptr %2, align 4
  store i32 1, ptr %9, align 4
  br label %99

98:                                               ; preds = %80
  store i32 1, ptr %2, align 4
  store i32 1, ptr %9, align 4
  br label %99

99:                                               ; preds = %98, %96, %95, %79, %70, %58, %49, %29
  call void @llvm.lifetime.end.p0(i64 8, ptr %8) #8
  call void @llvm.lifetime.end.p0(i64 8, ptr %7) #8
  call void @llvm.lifetime.end.p0(i64 8, ptr %6) #8
  call void @llvm.lifetime.end.p0(i64 8, ptr %5) #8
  call void @llvm.lifetime.end.p0(i64 8, ptr %4) #8
  %100 = load i32, ptr %2, align 4
  ret i32 %100
}