; Function Attrs: nounwind uwtable
define range(i32 0, 2) i32 @ssl3_check_cert_and_algorithm(ptr noundef %0) local_unnamed_addr #0 {
  %2 = alloca i64, align 8
  call void @llvm.lifetime.start.p0(i64 8, ptr nonnull %2) #8
  %3 = getelementptr inbounds nuw i8, ptr %0, i64 768
  %4 = load ptr, ptr %3, align 8, !tbaa !86
  %5 = getelementptr inbounds nuw i8, ptr %4, i64 28
  %6 = load i32, ptr %5, align 4, !tbaa !89
  %7 = zext i32 %6 to i64
  %8 = getelementptr inbounds nuw i8, ptr %4, i64 32
  %9 = load i32, ptr %8, align 8, !tbaa !87
  %10 = and i32 %9, 171
  %.not = icmp eq i32 %10, 0
  br i1 %.not, label %47, label %11

11:                                               ; preds = %1
  %12 = tail call ptr @tls_get_peer_pkey(ptr noundef nonnull %0) #8
  %13 = getelementptr inbounds nuw i8, ptr %0, i64 8
  %14 = load ptr, ptr %13, align 8, !tbaa !121
  %15 = call ptr @ssl_cert_lookup_by_pkey(ptr noundef %12, ptr noundef nonnull %2, ptr noundef %14) #8
  %16 = icmp eq ptr %15, null
  br i1 %16, label %22, label %17

17:                                               ; preds = %11
  %18 = getelementptr inbounds nuw i8, ptr %15, i64 4
  %19 = load i32, ptr %18, align 4, !tbaa !215
  %20 = and i32 %19, %9
  %21 = icmp eq i32 %20, 0
  br i1 %21, label %22, label %23

22:                                               ; preds = %17, %11
  call void @ERR_new() #8
  call void @ERR_set_debug(ptr noundef nonnull @.str, i32 noundef 3951, ptr noundef nonnull @__func__.ssl3_check_cert_and_algorithm) #8
  call void (ptr, i32, i32, ptr, ...) @ossl_statem_fatal(ptr noundef nonnull %0, i32 noundef 40, i32 noundef 221, ptr noundef null) #8
  br label %47

23:                                               ; preds = %17
  %24 = and i64 %7, 65
  %25 = icmp ne i64 %24, 0
  %26 = load i64, ptr %2, align 8
  %27 = icmp ne i64 %26, 0
  %or.cond = select i1 %25, i1 %27, i1 false
  br i1 %or.cond, label %28, label %29

28:                                               ; preds = %23
  call void @ERR_new() #8
  call void @ERR_set_debug(ptr noundef nonnull @.str, i32 noundef 3957, ptr noundef nonnull @__func__.ssl3_check_cert_and_algorithm) #8
  call void (ptr, i32, i32, ptr, ...) @ossl_statem_fatal(ptr noundef nonnull %0, i32 noundef 40, i32 noundef 169, ptr noundef null) #8
  br label %47

29:                                               ; preds = %23
  %30 = and i64 %7, 2
  %.not22 = icmp eq i64 %30, 0
  br i1 %.not22, label %36, label %31

31:                                               ; preds = %29
  %32 = getelementptr inbounds nuw i8, ptr %0, i64 1248
  %33 = load ptr, ptr %32, align 8, !tbaa !172
  %34 = icmp eq ptr %33, null
  br i1 %34, label %35, label %36

35:                                               ; preds = %31
  call void @ERR_new() #8
  call void @ERR_set_debug(ptr noundef nonnull @.str, i32 noundef 3962, ptr noundef nonnull @__func__.ssl3_check_cert_and_algorithm) #8
  call void (ptr, i32, i32, ptr, ...) @ossl_statem_fatal(ptr noundef nonnull %0, i32 noundef 80, i32 noundef 786691, ptr noundef null) #8
  br label %47

36:                                               ; preds = %31, %29
  %37 = getelementptr inbounds nuw i8, ptr %0, i64 2304
  %38 = load ptr, ptr %37, align 8, !tbaa !82
  %39 = getelementptr inbounds nuw i8, ptr %38, i64 696
  %40 = load ptr, ptr %39, align 8, !tbaa !169
  %.not23 = icmp ne ptr %40, null
  %41 = and i32 %19, 8
  %.not24 = icmp eq i32 %41, 0
  %or.cond26 = or i1 %.not24, %.not23
  br i1 %or.cond26, label %47, label %42

42:                                               ; preds = %36
  %43 = getelementptr inbounds nuw i8, ptr %38, i64 704
  %44 = load ptr, ptr %43, align 8, !tbaa !170
  %45 = call i32 @ssl_check_srvr_ecc_cert_and_alg(ptr noundef %44, ptr noundef nonnull %0) #8
  %.not25 = icmp eq i32 %45, 0
  br i1 %.not25, label %46, label %47

46:                                               ; preds = %42
  call void @ERR_new() #8
  call void @ERR_set_debug(ptr noundef nonnull @.str, i32 noundef 3973, ptr noundef nonnull @__func__.ssl3_check_cert_and_algorithm) #8
  call void (ptr, i32, i32, ptr, ...) @ossl_statem_fatal(ptr noundef nonnull %0, i32 noundef 40, i32 noundef 304, ptr noundef null) #8
  br label %47

47:                                               ; preds = %42, %36, %1, %46, %35, %28, %22
  %.0 = phi i32 [ 0, %22 ], [ 0, %28 ], [ 0, %35 ], [ 0, %46 ], [ 1, %1 ], [ 1, %36 ], [ 1, %42 ]
  call void @llvm.lifetime.end.p0(i64 8, ptr nonnull %2) #8
  ret i32 %.0
}